; ModuleID = '19/437.c'
source_filename = "19/437.c"
target datalayout = "e-m:e-p270:32:32-p271:32:32-p272:64:64-i64:64-f80:128-n8:16:32:64-S128"
target triple = "x86_64-pc-linux-gnu"

@.str = private unnamed_addr constant [3 x i8] c"%s\00", align 1
@.str.1 = private unnamed_addr constant [4 x i8] c"%s \00", align 1

; Function Attrs: noinline nounwind uwtable
define dso_local i32 @main() #0 {
  %1 = alloca i32, align 4
  %2 = alloca [100 x [100 x i8]], align 16
  %3 = alloca [100 x i8], align 16
  %4 = alloca [100 x i8], align 16
  %5 = alloca [100 x i8]*, align 8
  %6 = alloca i32, align 4
  %7 = alloca i32, align 4
  %8 = alloca i32, align 4
  store i32 0, i32* %1, align 4
  store i32 0, i32* %6, align 4
  br label %9

9:                                                ; preds = %20, %0
  %10 = load i32, i32* %6, align 4
  %11 = sext i32 %10 to i64
  %12 = getelementptr inbounds [100 x [100 x i8]], [100 x [100 x i8]]* %2, i64 0, i64 %11
  %13 = getelementptr inbounds [100 x i8], [100 x i8]* %12, i64 0, i64 0
  %14 = call i32 (i8*, ...) @__isoc99_scanf(i8* getelementptr inbounds ([3 x i8], [3 x i8]* @.str, i64 0, i64 0), i8* %13)
  %15 = load i32, i32* %6, align 4
  store i32 %15, i32* %8, align 4
  %16 = call i32 @getchar()
  %17 = icmp eq i32 %16, 10
  br i1 %17, label %18, label %19

18:                                               ; preds = %9
  br label %23

19:                                               ; preds = %9
  br label %20

20:                                               ; preds = %19
  %21 = load i32, i32* %6, align 4
  %22 = add nsw i32 %21, 1
  store i32 %22, i32* %6, align 4
  br label %9

23:                                               ; preds = %18
  %24 = getelementptr inbounds [100 x [100 x i8]], [100 x [100 x i8]]* %2, i64 0, i64 0
  store [100 x i8]* %24, [100 x i8]** %5, align 8
  %25 = getelementptr inbounds [100 x i8], [100 x i8]* %3, i64 0, i64 0
  %26 = call i32 (i8*, ...) bitcast (i32 (...)* @gets to i32 (i8*, ...)*)(i8* %25)
  %27 = getelementptr inbounds [100 x i8], [100 x i8]* %4, i64 0, i64 0
  %28 = call i32 (i8*, ...) bitcast (i32 (...)* @gets to i32 (i8*, ...)*)(i8* %27)
  store i32 0, i32* %6, align 4
  br label %29

29:                                               ; preds = %51, %23
  %30 = load i32, i32* %6, align 4
  %31 = load i32, i32* %8, align 4
  %32 = icmp sle i32 %30, %31
  br i1 %32, label %33, label %54

33:                                               ; preds = %29
  %34 = load [100 x i8]*, [100 x i8]** %5, align 8
  %35 = load i32, i32* %6, align 4
  %36 = sext i32 %35 to i64
  %37 = getelementptr inbounds [100 x i8], [100 x i8]* %34, i64 %36
  %38 = getelementptr inbounds [100 x i8], [100 x i8]* %37, i64 0, i64 0
  %39 = getelementptr inbounds [100 x i8], [100 x i8]* %3, i64 0, i64 0
  %40 = call i32 @strcmp(i8* %38, i8* %39) #4
  %41 = icmp eq i32 %40, 0
  br i1 %41, label %42, label %50

42:                                               ; preds = %33
  %43 = load [100 x i8]*, [100 x i8]** %5, align 8
  %44 = load i32, i32* %6, align 4
  %45 = sext i32 %44 to i64
  %46 = getelementptr inbounds [100 x i8], [100 x i8]* %43, i64 %45
  %47 = getelementptr inbounds [100 x i8], [100 x i8]* %46, i64 0, i64 0
  %48 = getelementptr inbounds [100 x i8], [100 x i8]* %4, i64 0, i64 0
  %49 = call i8* @strcpy(i8* %47, i8* %48) #5
  br label %50

50:                                               ; preds = %42, %33
  br label %51

51:                                               ; preds = %50
  %52 = load i32, i32* %6, align 4
  %53 = add nsw i32 %52, 1
  store i32 %53, i32* %6, align 4
  br label %29

54:                                               ; preds = %29
  store i32 0, i32* %6, align 4
  br label %55

55:                                               ; preds = %78, %54
  %56 = load i32, i32* %6, align 4
  %57 = load i32, i32* %8, align 4
  %58 = icmp sle i32 %56, %57
  br i1 %58, label %59, label %81

59:                                               ; preds = %55
  %60 = load i32, i32* %6, align 4
  %61 = load i32, i32* %8, align 4
  %62 = icmp slt i32 %60, %61
  br i1 %62, label %63, label %70

63:                                               ; preds = %59
  %64 = load [100 x i8]*, [100 x i8]** %5, align 8
  %65 = load i32, i32* %6, align 4
  %66 = sext i32 %65 to i64
  %67 = getelementptr inbounds [100 x i8], [100 x i8]* %64, i64 %66
  %68 = getelementptr inbounds [100 x i8], [100 x i8]* %67, i64 0, i64 0
  %69 = call i32 (i8*, ...) @printf(i8* getelementptr inbounds ([4 x i8], [4 x i8]* @.str.1, i64 0, i64 0), i8* %68)
  br label %77

70:                                               ; preds = %59
  %71 = load [100 x i8]*, [100 x i8]** %5, align 8
  %72 = load i32, i32* %6, align 4
  %73 = sext i32 %72 to i64
  %74 = getelementptr inbounds [100 x i8], [100 x i8]* %71, i64 %73
  %75 = getelementptr inbounds [100 x i8], [100 x i8]* %74, i64 0, i64 0
  %76 = call i32 (i8*, ...) @printf(i8* getelementptr inbounds ([3 x i8], [3 x i8]* @.str, i64 0, i64 0), i8* %75)
  br label %77

77:                                               ; preds = %70, %63
  br label %78

78:                                               ; preds = %77
  %79 = load i32, i32* %6, align 4
  %80 = add nsw i32 %79, 1
  store i32 %80, i32* %6, align 4
  br label %55

81:                                               ; preds = %55
  %82 = load i32, i32* %1, align 4
  ret i32 %82
}

declare dso_local i32 @__isoc99_scanf(i8*, ...) #1

declare dso_local i32 @getchar() #1

declare dso_local i32 @gets(...) #1

; Function Attrs: nounwind readonly
declare dso_local i32 @strcmp(i8*, i8*) #2

; Function Attrs: nounwind
declare dso_local i8* @strcpy(i8*, i8*) #3

declare dso_local i32 @printf(i8*, ...) #1


!llvm.module.flags = !{!0}
!llvm.ident = !{!1}

!0 = !{i32 1, !"wchar_size", i32 4}
!1 = !{!"clang version 10.0.0-4ubuntu1 "}
